target datalayout = "e-m:e-p270:32:32-p271:32:32-p272:64:64-i64:64-i128:128-f80:128-n8:16:32:64-S128"
target triple = "x86_64-pc-linux-gnu"

%struct.pmix_value = type { i16, %union.anon }
%union.anon = type { %struct.pmix_envar_t }
%struct.pmix_envar_t = type { ptr, ptr, i8 }
%struct.pmix_byte_object = type { ptr, i64 }

; Function Attrs: nounwind uwtable
define void @pmix12_bfrop_value_load(ptr noundef %0, ptr noundef %1, i16 noundef zeroext %2) #0 {
  %4 = alloca ptr, align 8
  %5 = alloca ptr, align 8
  %6 = alloca i16, align 2
  %7 = alloca ptr, align 8
  store ptr %0, ptr %4, align 8, !tbaa !31
  store ptr %1, ptr %5, align 8, !tbaa !3
  store i16 %2, ptr %6, align 2, !tbaa !33
  call void @llvm.lifetime.start.p0(i64 8, ptr %7) #13
  %8 = load i16, ptr %6, align 2, !tbaa !33
  %9 = load ptr, ptr %4, align 8, !tbaa !31
  %10 = getelementptr inbounds nuw %struct.pmix_value, ptr %9, i32 0, i32 0
  store i16 %8, ptr %10, align 8, !tbaa !34
  %11 = load ptr, ptr %5, align 8, !tbaa !3
  %12 = icmp eq ptr null, %11
  br i1 %12, label %13, label %16

13:                                               ; preds = %3
  %14 = load ptr, ptr %4, align 8, !tbaa !31
  %15 = getelementptr inbounds nuw %struct.pmix_value, ptr %14, i32 0, i32 1
  call void @llvm.memset.p0.i64(ptr align 8 %15, i8 0, i64 24, i1 false)
  br label %107

16:                                               ; preds = %3
  %17 = load i16, ptr %6, align 2, !tbaa !33
  %18 = zext i16 %17 to i32
  switch i32 %18, label %106 [
    i32 0, label %106
    i32 1, label %19
    i32 2, label %23
    i32 3, label %27
    i32 4, label %32
    i32 5, label %36
    i32 6, label %40
    i32 7, label %44
    i32 8, label %48
    i32 9, label %52
    i32 10, label %56
    i32 11, label %60
    i32 12, label %64
    i32 13, label %68
    i32 14, label %72
    i32 15, label %76
    i32 16, label %80
    i32 17, label %84
    i32 18, label %88
    i32 27, label %92
    i32 19, label %105
    i32 21, label %105
    i32 44, label %105
    i32 23, label %105
    i32 24, label %105
    i32 25, label %105
    i32 26, label %105
    i32 28, label %105
    i32 29, label %105
    i32 30, label %105
    i32 22, label %105
  ]

19:                                               ; preds = %16
  %20 = load ptr, ptr %4, align 8, !tbaa !31
  %21 = getelementptr inbounds nuw %struct.pmix_value, ptr %20, i32 0, i32 1
  %22 = load ptr, ptr %5, align 8, !tbaa !3
  call void @llvm.memcpy.p0.p0.i64(ptr align 8 %21, ptr align 1 %22, i64 1, i1 false)
  br label %106

23:                                               ; preds = %16
  %24 = load ptr, ptr %4, align 8, !tbaa !31
  %25 = getelementptr inbounds nuw %struct.pmix_value, ptr %24, i32 0, i32 1
  %26 = load ptr, ptr %5, align 8, !tbaa !3
  call void @llvm.memcpy.p0.p0.i64(ptr align 8 %25, ptr align 1 %26, i64 1, i1 false)
  br label %106

27:                                               ; preds = %16
  %28 = load ptr, ptr %5, align 8, !tbaa !3
  %29 = call noalias ptr @strdup(ptr noundef %28) #13
  %30 = load ptr, ptr %4, align 8, !tbaa !31
  %31 = getelementptr inbounds nuw %struct.pmix_value, ptr %30, i32 0, i32 1
  store ptr %29, ptr %31, align 8, !tbaa !36
  br label %106

32:                                               ; preds = %16
  %33 = load ptr, ptr %4, align 8, !tbaa !31
  %34 = getelementptr inbounds nuw %struct.pmix_value, ptr %33, i32 0, i32 1
  %35 = load ptr, ptr %5, align 8, !tbaa !3
  call void @llvm.memcpy.p0.p0.i64(ptr align 8 %34, ptr align 1 %35, i64 8, i1 false)
  br label %106

36:                                               ; preds = %16
  %37 = load ptr, ptr %4, align 8, !tbaa !31
  %38 = getelementptr inbounds nuw %struct.pmix_value, ptr %37, i32 0, i32 1
  %39 = load ptr, ptr %5, align 8, !tbaa !3
  call void @llvm.memcpy.p0.p0.i64(ptr align 8 %38, ptr align 1 %39, i64 4, i1 false)
  br label %106

40:                                               ; preds = %16
  %41 = load ptr, ptr %4, align 8, !tbaa !31
  %42 = getelementptr inbounds nuw %struct.pmix_value, ptr %41, i32 0, i32 1
  %43 = load ptr, ptr %5, align 8, !tbaa !3
  call void @llvm.memcpy.p0.p0.i64(ptr align 8 %42, ptr align 1 %43, i64 4, i1 false)
  br label %106

44:                                               ; preds = %16
  %45 = load ptr, ptr %4, align 8, !tbaa !31
  %46 = getelementptr inbounds nuw %struct.pmix_value, ptr %45, i32 0, i32 1
  %47 = load ptr, ptr %5, align 8, !tbaa !3
  call void @llvm.memcpy.p0.p0.i64(ptr align 8 %46, ptr align 1 %47, i64 1, i1 false)
  br label %106

48:                                               ; preds = %16
  %49 = load ptr, ptr %4, align 8, !tbaa !31
  %50 = getelementptr inbounds nuw %struct.pmix_value, ptr %49, i32 0, i32 1
  %51 = load ptr, ptr %5, align 8, !tbaa !3
  call void @llvm.memcpy.p0.p0.i64(ptr align 8 %50, ptr align 1 %51, i64 2, i1 false)
  br label %106

52:                                               ; preds = %16
  %53 = load ptr, ptr %4, align 8, !tbaa !31
  %54 = getelementptr inbounds nuw %struct.pmix_value, ptr %53, i32 0, i32 1
  %55 = load ptr, ptr %5, align 8, !tbaa !3
  call void @llvm.memcpy.p0.p0.i64(ptr align 8 %54, ptr align 1 %55, i64 4, i1 false)
  br label %106

56:                                               ; preds = %16
  %57 = load ptr, ptr %4, align 8, !tbaa !31
  %58 = getelementptr inbounds nuw %struct.pmix_value, ptr %57, i32 0, i32 1
  %59 = load ptr, ptr %5, align 8, !tbaa !3
  call void @llvm.memcpy.p0.p0.i64(ptr align 8 %58, ptr align 1 %59, i64 8, i1 false)
  br label %106

60:                                               ; preds = %16
  %61 = load ptr, ptr %4, align 8, !tbaa !31
  %62 = getelementptr inbounds nuw %struct.pmix_value, ptr %61, i32 0, i32 1
  %63 = load ptr, ptr %5, align 8, !tbaa !3
  call void @llvm.memcpy.p0.p0.i64(ptr align 8 %62, ptr align 1 %63, i64 4, i1 false)
  br label %106

64:                                               ; preds = %16
  %65 = load ptr, ptr %4, align 8, !tbaa !31
  %66 = getelementptr inbounds nuw %struct.pmix_value, ptr %65, i32 0, i32 1
  %67 = load ptr, ptr %5, align 8, !tbaa !3
  call void @llvm.memcpy.p0.p0.i64(ptr align 8 %66, ptr align 1 %67, i64 1, i1 false)
  br label %106

68:                                               ; preds = %16
  %69 = load ptr, ptr %4, align 8, !tbaa !31
  %70 = getelementptr inbounds nuw %struct.pmix_value, ptr %69, i32 0, i32 1
  %71 = load ptr, ptr %5, align 8, !tbaa !3
  call void @llvm.memcpy.p0.p0.i64(ptr align 8 %70, ptr align 1 %71, i64 2, i1 false)
  br label %106

72:                                               ; preds = %16
  %73 = load ptr, ptr %4, align 8, !tbaa !31
  %74 = getelementptr inbounds nuw %struct.pmix_value, ptr %73, i32 0, i32 1
  %75 = load ptr, ptr %5, align 8, !tbaa !3
  call void @llvm.memcpy.p0.p0.i64(ptr align 8 %74, ptr align 1 %75, i64 4, i1 false)
  br label %106

76:                                               ; preds = %16
  %77 = load ptr, ptr %4, align 8, !tbaa !31
  %78 = getelementptr inbounds nuw %struct.pmix_value, ptr %77, i32 0, i32 1
  %79 = load ptr, ptr %5, align 8, !tbaa !3
  call void @llvm.memcpy.p0.p0.i64(ptr align 8 %78, ptr align 1 %79, i64 8, i1 false)
  br label %106

80:                                               ; preds = %16
  %81 = load ptr, ptr %4, align 8, !tbaa !31
  %82 = getelementptr inbounds nuw %struct.pmix_value, ptr %81, i32 0, i32 1
  %83 = load ptr, ptr %5, align 8, !tbaa !3
  call void @llvm.memcpy.p0.p0.i64(ptr align 8 %82, ptr align 1 %83, i64 4, i1 false)
  br label %106

84:                                               ; preds = %16
  %85 = load ptr, ptr %4, align 8, !tbaa !31
  %86 = getelementptr inbounds nuw %struct.pmix_value, ptr %85, i32 0, i32 1
  %87 = load ptr, ptr %5, align 8, !tbaa !3
  call void @llvm.memcpy.p0.p0.i64(ptr align 8 %86, ptr align 1 %87, i64 8, i1 false)
  br label %106

88:                                               ; preds = %16
  %89 = load ptr, ptr %4, align 8, !tbaa !31
  %90 = getelementptr inbounds nuw %struct.pmix_value, ptr %89, i32 0, i32 1
  %91 = load ptr, ptr %5, align 8, !tbaa !3
  call void @llvm.memcpy.p0.p0.i64(ptr align 8 %90, ptr align 1 %91, i64 16, i1 false)
  br label %106

92:                                               ; preds = %16
  %93 = load ptr, ptr %5, align 8, !tbaa !3
  store ptr %93, ptr %7, align 8, !tbaa !37
  %94 = load ptr, ptr %7, align 8, !tbaa !37
  %95 = getelementptr inbounds nuw %struct.pmix_byte_object, ptr %94, i32 0, i32 0
  %96 = load ptr, ptr %95, align 8, !tbaa !39
  %97 = load ptr, ptr %4, align 8, !tbaa !31
  %98 = getelementptr inbounds nuw %struct.pmix_value, ptr %97, i32 0, i32 1
  %99 = getelementptr inbounds nuw %struct.pmix_byte_object, ptr %98, i32 0, i32 0
  store ptr %96, ptr %99, align 8, !tbaa !36
  %100 = load ptr, ptr %4, align 8, !tbaa !31
  %101 = getelementptr inbounds nuw %struct.pmix_value, ptr %100, i32 0, i32 1
  %102 = getelementptr inbounds nuw %struct.pmix_byte_object, ptr %101, i32 0, i32 1
  %103 = load ptr, ptr %7, align 8, !tbaa !37
  %104 = getelementptr inbounds nuw %struct.pmix_byte_object, ptr %103, i32 0, i32 1
  call void @llvm.memcpy.p0.p0.i64(ptr align 8 %102, ptr align 8 %104, i64 8, i1 false)
  br label %106

105:                                              ; preds = %16, %16, %16, %16, %16, %16, %16, %16, %16, %16, %16
  br label %106

106:                                              ; preds = %16, %105, %92, %88, %84, %80, %76, %72, %68, %64, %60, %56, %16, %52, %48, %44, %40, %36, %32, %27, %23, %19
  br label %107

107:                                              ; preds = %106, %13
  call void @llvm.lifetime.end.p0(i64 8, ptr %7) #13
  ret void
}