; Function Attrs: mustprogress nofree nounwind willreturn memory(argmem: readwrite, inaccessiblemem: readwrite) uwtable
define void @pmix12_bfrop_value_load(ptr noundef writeonly captures(none) initializes((0, 2)) %0, ptr noundef readonly captures(address_is_null) %1, i16 noundef zeroext %2) #2 {
  store i16 %2, ptr %0, align 8, !tbaa !40
  %4 = icmp eq ptr %1, null
  br i1 %4, label %5, label %7

5:                                                ; preds = %3
  %6 = getelementptr inbounds nuw i8, ptr %0, i64 8
  tail call void @llvm.memset.p0.i64(ptr noundef nonnull align 8 dereferenceable(24) %6, i8 0, i64 24, i1 false)
  br label %67

7:                                                ; preds = %3
  switch i16 %2, label %67 [
    i16 27, label %61
    i16 1, label %8
    i16 2, label %11
    i16 3, label %14
    i16 4, label %17
    i16 5, label %20
    i16 6, label %23
    i16 7, label %26
    i16 8, label %29
    i16 9, label %32
    i16 10, label %35
    i16 11, label %38
    i16 12, label %41
    i16 13, label %44
    i16 14, label %47
    i16 15, label %50
    i16 16, label %53
    i16 17, label %56
    i16 18, label %59
  ]

8:                                                ; preds = %7
  %9 = getelementptr inbounds nuw i8, ptr %0, i64 8
  %10 = load i8, ptr %1, align 1
  store i8 %10, ptr %9, align 8
  br label %67

11:                                               ; preds = %7
  %12 = getelementptr inbounds nuw i8, ptr %0, i64 8
  %13 = load i8, ptr %1, align 1
  store i8 %13, ptr %12, align 8
  br label %67

14:                                               ; preds = %7
  %15 = tail call noalias ptr @strdup(ptr noundef nonnull %1) #18
  %16 = getelementptr inbounds nuw i8, ptr %0, i64 8
  store ptr %15, ptr %16, align 8, !tbaa !42
  br label %67

17:                                               ; preds = %7
  %18 = getelementptr inbounds nuw i8, ptr %0, i64 8
  %19 = load i64, ptr %1, align 1
  store i64 %19, ptr %18, align 8
  br label %67

20:                                               ; preds = %7
  %21 = getelementptr inbounds nuw i8, ptr %0, i64 8
  %22 = load i32, ptr %1, align 1
  store i32 %22, ptr %21, align 8
  br label %67

23:                                               ; preds = %7
  %24 = getelementptr inbounds nuw i8, ptr %0, i64 8
  %25 = load i32, ptr %1, align 1
  store i32 %25, ptr %24, align 8
  br label %67

26:                                               ; preds = %7
  %27 = getelementptr inbounds nuw i8, ptr %0, i64 8
  %28 = load i8, ptr %1, align 1
  store i8 %28, ptr %27, align 8
  br label %67

29:                                               ; preds = %7
  %30 = getelementptr inbounds nuw i8, ptr %0, i64 8
  %31 = load i16, ptr %1, align 1
  store i16 %31, ptr %30, align 8
  br label %67

32:                                               ; preds = %7
  %33 = getelementptr inbounds nuw i8, ptr %0, i64 8
  %34 = load i32, ptr %1, align 1
  store i32 %34, ptr %33, align 8
  br label %67

35:                                               ; preds = %7
  %36 = getelementptr inbounds nuw i8, ptr %0, i64 8
  %37 = load i64, ptr %1, align 1
  store i64 %37, ptr %36, align 8
  br label %67

38:                                               ; preds = %7
  %39 = getelementptr inbounds nuw i8, ptr %0, i64 8
  %40 = load i32, ptr %1, align 1
  store i32 %40, ptr %39, align 8
  br label %67

41:                                               ; preds = %7
  %42 = getelementptr inbounds nuw i8, ptr %0, i64 8
  %43 = load i8, ptr %1, align 1
  store i8 %43, ptr %42, align 8
  br label %67

44:                                               ; preds = %7
  %45 = getelementptr inbounds nuw i8, ptr %0, i64 8
  %46 = load i16, ptr %1, align 1
  store i16 %46, ptr %45, align 8
  br label %67

47:                                               ; preds = %7
  %48 = getelementptr inbounds nuw i8, ptr %0, i64 8
  %49 = load i32, ptr %1, align 1
  store i32 %49, ptr %48, align 8
  br label %67

50:                                               ; preds = %7
  %51 = getelementptr inbounds nuw i8, ptr %0, i64 8
  %52 = load i64, ptr %1, align 1
  store i64 %52, ptr %51, align 8
  br label %67

53:                                               ; preds = %7
  %54 = getelementptr inbounds nuw i8, ptr %0, i64 8
  %55 = load i32, ptr %1, align 1
  store i32 %55, ptr %54, align 8
  br label %67

56:                                               ; preds = %7
  %57 = getelementptr inbounds nuw i8, ptr %0, i64 8
  %58 = load i64, ptr %1, align 1
  store i64 %58, ptr %57, align 8
  br label %67

59:                                               ; preds = %7
  %60 = getelementptr inbounds nuw i8, ptr %0, i64 8
  tail call void @llvm.memcpy.p0.p0.i64(ptr noundef nonnull align 8 dereferenceable(16) %60, ptr noundef nonnull align 1 dereferenceable(16) %1, i64 16, i1 false)
  br label %67

61:                                               ; preds = %7
  %62 = load ptr, ptr %1, align 8, !tbaa !43
  %63 = getelementptr inbounds nuw i8, ptr %0, i64 8
  store ptr %62, ptr %63, align 8, !tbaa !42
  %64 = getelementptr inbounds nuw i8, ptr %0, i64 16
  %65 = getelementptr inbounds nuw i8, ptr %1, i64 8
  %66 = load i64, ptr %65, align 8
  store i64 %66, ptr %64, align 8
  br label %67

67:                                               ; preds = %7, %8, %11, %14, %17, %20, %23, %26, %29, %32, %35, %38, %41, %44, %47, %50, %53, %56, %59, %61, %5
  ret void
}